; Function Attrs: mustprogress nofree norecurse nosync nounwind memory(read, argmem: readwrite, inaccessiblemem: none) uwtable
define internal fastcc { i64, ptr } @_ZN4llvm16itanium_demangle22AbstractManglingParserINS0_14ManglingParserIN12_GLOBAL__N_122CanonicalizerAllocatorEEES4_E11parseNumberEb(ptr noundef nonnull align 8 captures(none) dereferenceable(1464) %0, i1 noundef zeroext %1) unnamed_addr #11 align 2 {
  %3 = load ptr, ptr %0, align 8
  %4 = getelementptr inbounds nuw i8, ptr %0, i64 8
  %5 = load ptr, ptr %4, align 8
  %.not.i = icmp ne ptr %3, %5
  %or.cond.not = select i1 %1, i1 %.not.i, i1 false
  br i1 %or.cond.not, label %6, label %_ZN4llvm16itanium_demangle22AbstractManglingParserINS0_14ManglingParserIN12_GLOBAL__N_122CanonicalizerAllocatorEEES4_E9consumeIfEc.exit

6:                                                ; preds = %2
  %7 = load i8, ptr %3, align 1
  %8 = icmp eq i8 %7, 110
  br i1 %8, label %9, label %_ZN4llvm16itanium_demangle22AbstractManglingParserINS0_14ManglingParserIN12_GLOBAL__N_122CanonicalizerAllocatorEEES4_E9consumeIfEc.exit

9:                                                ; preds = %6
  %10 = getelementptr inbounds nuw i8, ptr %3, i64 1
  store ptr %10, ptr %0, align 8
  br label %_ZN4llvm16itanium_demangle22AbstractManglingParserINS0_14ManglingParserIN12_GLOBAL__N_122CanonicalizerAllocatorEEES4_E9consumeIfEc.exit

_ZN4llvm16itanium_demangle22AbstractManglingParserINS0_14ManglingParserIN12_GLOBAL__N_122CanonicalizerAllocatorEEES4_E9consumeIfEc.exit: ; preds = %9, %6, %2
  %.promoted = phi ptr [ %10, %9 ], [ %3, %6 ], [ %3, %2 ]
  %11 = icmp eq ptr %5, %.promoted
  br i1 %11, label %22, label %12

12:                                               ; preds = %_ZN4llvm16itanium_demangle22AbstractManglingParserINS0_14ManglingParserIN12_GLOBAL__N_122CanonicalizerAllocatorEEES4_E9consumeIfEc.exit
  %13 = load i8, ptr %.promoted, align 1
  %14 = sext i8 %13 to i32
  %isdigittmp = add nsw i32 %14, -48
  %isdigit = icmp ult i32 %isdigittmp, 10
  br i1 %isdigit, label %.lr.ph, label %22

.lr.ph:                                           ; preds = %12, %17
  %.val1012 = phi ptr [ %18, %17 ], [ %.promoted, %12 ]
  %15 = load i8, ptr %.val1012, align 1
  %16 = sext i8 %15 to i32
  %isdigittmp3 = add nsw i32 %16, -48
  %isdigit4 = icmp ult i32 %isdigittmp3, 10
  br i1 %isdigit4, label %17, label %.critedge

17:                                               ; preds = %.lr.ph
  %18 = getelementptr inbounds nuw i8, ptr %.val1012, i64 1
  store ptr %18, ptr %0, align 8
  %.not = icmp eq ptr %5, %18
  br i1 %.not, label %.critedge, label %.lr.ph, !llvm.loop !18

.critedge:                                        ; preds = %.lr.ph, %17
  %.val.lcssa.ph = phi ptr [ %.val1012, %.lr.ph ], [ %5, %17 ]
  %19 = ptrtoint ptr %.val.lcssa.ph to i64
  %20 = ptrtoint ptr %3 to i64
  %21 = sub i64 %19, %20
  br label %22

22:                                               ; preds = %_ZN4llvm16itanium_demangle22AbstractManglingParserINS0_14ManglingParserIN12_GLOBAL__N_122CanonicalizerAllocatorEEES4_E9consumeIfEc.exit, %12, %.critedge
  %.sroa.0.0 = phi i64 [ %21, %.critedge ], [ 0, %12 ], [ 0, %_ZN4llvm16itanium_demangle22AbstractManglingParserINS0_14ManglingParserIN12_GLOBAL__N_122CanonicalizerAllocatorEEES4_E9consumeIfEc.exit ]
  %.sroa.3.0 = phi ptr [ %3, %.critedge ], [ null, %12 ], [ null, %_ZN4llvm16itanium_demangle22AbstractManglingParserINS0_14ManglingParserIN12_GLOBAL__N_122CanonicalizerAllocatorEEES4_E9consumeIfEc.exit ]
  %.fca.0.insert = insertvalue { i64, ptr } poison, i64 %.sroa.0.0, 0
  %.fca.1.insert = insertvalue { i64, ptr } %.fca.0.insert, ptr %.sroa.3.0, 1
  ret { i64, ptr } %.fca.1.insert
}